; Function Attrs: mustprogress nounwind uwtable
define dso_local noundef zeroext i1 @_ZNK4llvm11MCAssembler20fixupNeedsRelaxationERKNS_7MCFixupEPKNS_19MCRelaxableFragmentE(ptr noundef nonnull align 8 dereferenceable(372) %0, ptr noundef nonnull align 8 dereferenceable(24) %1, ptr noundef %2) local_unnamed_addr #0 align 2 {
  %4 = alloca %"class.llvm::MCValue", align 8
  %5 = alloca i64, align 8
  %6 = alloca i8, align 1
  call void @llvm.memset.p0.i64(ptr noundef nonnull align 8 dereferenceable(28) %4, i8 0, i64 28, i1 false)
  %7 = getelementptr inbounds nuw i8, ptr %2, i64 32
  %8 = load ptr, ptr %7, align 8
  %9 = call noundef zeroext i1 @_ZNK4llvm11MCAssembler13evaluateFixupERKNS_7MCFixupEPKNS_10MCFragmentERNS_7MCValueEPKNS_15MCSubtargetInfoERmRb(ptr noundef nonnull align 8 dereferenceable(372) %0, ptr noundef nonnull align 8 dereferenceable(24) %1, ptr noundef nonnull %2, ptr noundef nonnull align 8 dereferenceable(28) %4, ptr noundef %8, ptr noundef nonnull align 8 dereferenceable(8) %5, ptr noundef nonnull align 1 dereferenceable(1) %6)
  %10 = load ptr, ptr %4, align 8
  %.not = icmp eq ptr %10, null
  br i1 %.not, label %19, label %11

11:                                               ; preds = %3
  %12 = getelementptr inbounds nuw i8, ptr %10, i64 1
  %13 = load i32, ptr %12, align 1
  %14 = and i32 %13, 65535
  %15 = icmp eq i32 %14, 36
  %16 = getelementptr inbounds nuw i8, ptr %1, i64 12
  %17 = load i32, ptr %16, align 4
  %18 = icmp eq i32 %17, 1
  %or.cond = select i1 %15, i1 %18, i1 false
  br i1 %or.cond, label %29, label %19

19:                                               ; preds = %11, %3
  %20 = getelementptr inbounds nuw i8, ptr %0, i64 8
  %21 = load ptr, ptr %20, align 8
  %22 = load i64, ptr %5, align 8
  %23 = load i8, ptr %6, align 1
  %24 = trunc i8 %23 to i1
  %25 = load ptr, ptr %21, align 8
  %26 = getelementptr inbounds i8, ptr %25, i64 128
  %27 = load ptr, ptr %26, align 8
  %28 = call noundef zeroext i1 %27(ptr noundef nonnull align 8 dereferenceable(16) %21, ptr noundef nonnull align 8 dereferenceable(372) %0, ptr noundef nonnull align 8 dereferenceable(24) %1, i1 noundef zeroext %9, i64 noundef %22, ptr noundef nonnull %2, i1 noundef zeroext %24) #11
  br label %29

29:                                               ; preds = %11, %19
  %.0 = phi i1 [ %28, %19 ], [ false, %11 ]
  ret i1 %.0
}